; Function Attrs: mustprogress uwtable
define i32 @u_vfprintf_77(ptr noundef %0, ptr noundef %1, ptr noundef %2) local_unnamed_addr #0 {
  %4 = alloca i32, align 4
  %5 = alloca [128 x i16], align 16
  call void @llvm.lifetime.start.p0(i64 256, ptr nonnull %5) #6
  %6 = tail call i64 @strlen(ptr noundef nonnull dereferenceable(1) %1) #7
  %7 = add i64 %6, 1
  %8 = icmp ugt i64 %7, 63
  br i1 %8, label %9, label %13

9:                                                ; preds = %3
  %10 = shl i64 %7, 1
  %11 = tail call noalias ptr @uprv_malloc_77(i64 noundef %10) #8
  %12 = icmp eq ptr %11, null
  br i1 %12, label %19, label %13

13:                                               ; preds = %3, %9
  %.013 = phi ptr [ %11, %9 ], [ %5, %3 ]
  %14 = trunc i64 %7 to i32
  call void @u_charsToUChars_77(ptr noundef nonnull %1, ptr noundef nonnull %.013, i32 noundef %14)
  call void @llvm.lifetime.start.p0(i64 4, ptr nonnull %4) #6
  store i32 0, ptr %4, align 4, !tbaa !10
  %15 = getelementptr inbounds nuw i8, ptr %0, i64 48
  %16 = call i32 @u_printf_parse_77(ptr noundef nonnull @_ZL16g_stream_handler, ptr noundef nonnull %.013, ptr noundef %0, ptr noundef null, ptr noundef nonnull %15, ptr noundef nonnull %4, ptr noundef %2)
  %17 = load i32, ptr %4, align 4, !tbaa !10
  call void @llvm.lifetime.end.p0(i64 4, ptr nonnull %4) #6
  %.not = icmp eq ptr %.013, %5
  br i1 %.not, label %19, label %18

18:                                               ; preds = %13
  call void @uprv_free_77(ptr noundef nonnull %.013)
  br label %19

19:                                               ; preds = %13, %18, %9
  %.0 = phi i32 [ 0, %9 ], [ %17, %18 ], [ %17, %13 ]
  call void @llvm.lifetime.end.p0(i64 256, ptr nonnull %5) #6
  ret i32 %.0
}